target datalayout = "e-m:e-p270:32:32-p271:32:32-p272:64:64-i64:64-i128:128-f80:128-n8:16:32:64-S128"
target triple = "x86_64-pc-linux-gnu"

%struct.FilterParams = type { i32, double, ptr, ptr, ptr }

; Function Attrs: nounwind uwtable
define internal void @blend_harmonic_9bit(ptr noundef %0, i64 noundef %1, ptr noundef %2, i64 noundef %3, ptr noundef %4, i64 noundef %5, i64 noundef %6, i64 noundef %7, ptr noundef %8, ptr noundef %9) #0 {
  %11 = alloca ptr, align 8
  %12 = alloca i64, align 8
  %13 = alloca ptr, align 8
  %14 = alloca i64, align 8
  %15 = alloca ptr, align 8
  %16 = alloca i64, align 8
  %17 = alloca i64, align 8
  %18 = alloca i64, align 8
  %19 = alloca ptr, align 8
  %20 = alloca ptr, align 8
  %21 = alloca ptr, align 8
  %22 = alloca ptr, align 8
  %23 = alloca ptr, align 8
  %24 = alloca float, align 4
  %25 = alloca i32, align 4
  %26 = alloca i32, align 4
  %27 = alloca i32, align 4
  store ptr %0, ptr %11, align 8, !tbaa !46
  store i64 %1, ptr %12, align 8, !tbaa !88
  store ptr %2, ptr %13, align 8, !tbaa !46
  store i64 %3, ptr %14, align 8, !tbaa !88
  store ptr %4, ptr %15, align 8, !tbaa !46
  store i64 %5, ptr %16, align 8, !tbaa !88
  store i64 %6, ptr %17, align 8, !tbaa !88
  store i64 %7, ptr %18, align 8, !tbaa !88
  store ptr %8, ptr %19, align 8, !tbaa !77
  store ptr %9, ptr %20, align 8, !tbaa !89
  call void @llvm.lifetime.start.p0(i64 8, ptr %21) #12
  %28 = load ptr, ptr %11, align 8, !tbaa !46
  store ptr %28, ptr %21, align 8, !tbaa !103
  call void @llvm.lifetime.start.p0(i64 8, ptr %22) #12
  %29 = load ptr, ptr %13, align 8, !tbaa !46
  store ptr %29, ptr %22, align 8, !tbaa !103
  call void @llvm.lifetime.start.p0(i64 8, ptr %23) #12
  %30 = load ptr, ptr %15, align 8, !tbaa !46
  store ptr %30, ptr %23, align 8, !tbaa !103
  call void @llvm.lifetime.start.p0(i64 4, ptr %24) #12
  %31 = load ptr, ptr %19, align 8, !tbaa !77
  %32 = getelementptr inbounds nuw %struct.FilterParams, ptr %31, i32 0, i32 1
  %33 = load double, ptr %32, align 8, !tbaa !82
  %34 = fptrunc nsz double %33 to float
  store float %34, ptr %24, align 4, !tbaa !99
  %35 = load i64, ptr %16, align 8, !tbaa !88
  %36 = udiv i64 %35, 2
  store i64 %36, ptr %16, align 8, !tbaa !88
  %37 = load i64, ptr %12, align 8, !tbaa !88
  %38 = udiv i64 %37, 2
  store i64 %38, ptr %12, align 8, !tbaa !88
  %39 = load i64, ptr %14, align 8, !tbaa !88
  %40 = udiv i64 %39, 2
  store i64 %40, ptr %14, align 8, !tbaa !88
  call void @llvm.lifetime.start.p0(i64 4, ptr %25) #12
  store i32 0, ptr %25, align 4, !tbaa !37
  br label %41

41:                                               ; preds = %138, %10
  %42 = load i32, ptr %25, align 4, !tbaa !37
  %43 = sext i32 %42 to i64
  %44 = load i64, ptr %18, align 8, !tbaa !88
  %45 = icmp slt i64 %43, %44
  br i1 %45, label %47, label %46

46:                                               ; preds = %41
  store i32 2, ptr %26, align 4
  call void @llvm.lifetime.end.p0(i64 4, ptr %25) #12
  br label %141

47:                                               ; preds = %41
  call void @llvm.lifetime.start.p0(i64 4, ptr %27) #12
  store i32 0, ptr %27, align 4, !tbaa !37
  br label %48

48:                                               ; preds = %125, %47
  %49 = load i32, ptr %27, align 4, !tbaa !37
  %50 = sext i32 %49 to i64
  %51 = load i64, ptr %17, align 8, !tbaa !88
  %52 = icmp slt i64 %50, %51
  br i1 %52, label %54, label %53

53:                                               ; preds = %48
  store i32 5, ptr %26, align 4
  call void @llvm.lifetime.end.p0(i64 4, ptr %27) #12
  br label %128

54:                                               ; preds = %48
  %55 = load ptr, ptr %21, align 8, !tbaa !103
  %56 = load i32, ptr %27, align 4, !tbaa !37
  %57 = sext i32 %56 to i64
  %58 = getelementptr inbounds i16, ptr %55, i64 %57
  %59 = load i16, ptr %58, align 2, !tbaa !105
  %60 = zext i16 %59 to i32
  %61 = sitofp i32 %60 to float
  %62 = load ptr, ptr %21, align 8, !tbaa !103
  %63 = load i32, ptr %27, align 4, !tbaa !37
  %64 = sext i32 %63 to i64
  %65 = getelementptr inbounds i16, ptr %62, i64 %64
  %66 = load i16, ptr %65, align 2, !tbaa !105
  %67 = zext i16 %66 to i32
  %68 = icmp eq i32 %67, 0
  br i1 %68, label %69, label %78

69:                                               ; preds = %54
  %70 = load ptr, ptr %22, align 8, !tbaa !103
  %71 = load i32, ptr %27, align 4, !tbaa !37
  %72 = sext i32 %71 to i64
  %73 = getelementptr inbounds i16, ptr %70, i64 %72
  %74 = load i16, ptr %73, align 2, !tbaa !105
  %75 = zext i16 %74 to i32
  %76 = icmp eq i32 %75, 0
  br i1 %76, label %77, label %78

77:                                               ; preds = %69
  br label %108

78:                                               ; preds = %69, %54
  %79 = load ptr, ptr %21, align 8, !tbaa !103
  %80 = load i32, ptr %27, align 4, !tbaa !37
  %81 = sext i32 %80 to i64
  %82 = getelementptr inbounds i16, ptr %79, i64 %81
  %83 = load i16, ptr %82, align 2, !tbaa !105
  %84 = zext i16 %83 to i64
  %85 = mul nsw i64 2, %84
  %86 = load ptr, ptr %22, align 8, !tbaa !103
  %87 = load i32, ptr %27, align 4, !tbaa !37
  %88 = sext i32 %87 to i64
  %89 = getelementptr inbounds i16, ptr %86, i64 %88
  %90 = load i16, ptr %89, align 2, !tbaa !105
  %91 = zext i16 %90 to i64
  %92 = mul nsw i64 %85, %91
  %93 = load ptr, ptr %21, align 8, !tbaa !103
  %94 = load i32, ptr %27, align 4, !tbaa !37
  %95 = sext i32 %94 to i64
  %96 = getelementptr inbounds i16, ptr %93, i64 %95
  %97 = load i16, ptr %96, align 2, !tbaa !105
  %98 = zext i16 %97 to i32
  %99 = load ptr, ptr %22, align 8, !tbaa !103
  %100 = load i32, ptr %27, align 4, !tbaa !37
  %101 = sext i32 %100 to i64
  %102 = getelementptr inbounds i16, ptr %99, i64 %101
  %103 = load i16, ptr %102, align 2, !tbaa !105
  %104 = zext i16 %103 to i32
  %105 = add nsw i32 %98, %104
  %106 = sext i32 %105 to i64
  %107 = sdiv i64 %92, %106
  br label %108

108:                                              ; preds = %78, %77
  %109 = phi i64 [ 0, %77 ], [ %107, %78 ]
  %110 = load ptr, ptr %21, align 8, !tbaa !103
  %111 = load i32, ptr %27, align 4, !tbaa !37
  %112 = sext i32 %111 to i64
  %113 = getelementptr inbounds i16, ptr %110, i64 %112
  %114 = load i16, ptr %113, align 2, !tbaa !105
  %115 = zext i16 %114 to i64
  %116 = sub nsw i64 %109, %115
  %117 = sitofp i64 %116 to float
  %118 = load float, ptr %24, align 4, !tbaa !99
  %119 = call nsz float @llvm.fmuladd.f32(float %117, float %118, float %61)
  %120 = fptoui float %119 to i16
  %121 = load ptr, ptr %23, align 8, !tbaa !103
  %122 = load i32, ptr %27, align 4, !tbaa !37
  %123 = sext i32 %122 to i64
  %124 = getelementptr inbounds i16, ptr %121, i64 %123
  store i16 %120, ptr %124, align 2, !tbaa !105
  br label %125

125:                                              ; preds = %108
  %126 = load i32, ptr %27, align 4, !tbaa !37
  %127 = add nsw i32 %126, 1
  store i32 %127, ptr %27, align 4, !tbaa !37
  br label %48, !llvm.loop !262

128:                                              ; preds = %53
  %129 = load i64, ptr %16, align 8, !tbaa !88
  %130 = load ptr, ptr %23, align 8, !tbaa !103
  %131 = getelementptr inbounds i16, ptr %130, i64 %129
  store ptr %131, ptr %23, align 8, !tbaa !103
  %132 = load i64, ptr %12, align 8, !tbaa !88
  %133 = load ptr, ptr %21, align 8, !tbaa !103
  %134 = getelementptr inbounds i16, ptr %133, i64 %132
  store ptr %134, ptr %21, align 8, !tbaa !103
  %135 = load i64, ptr %14, align 8, !tbaa !88
  %136 = load ptr, ptr %22, align 8, !tbaa !103
  %137 = getelementptr inbounds i16, ptr %136, i64 %135
  store ptr %137, ptr %22, align 8, !tbaa !103
  br label %138

138:                                              ; preds = %128
  %139 = load i32, ptr %25, align 4, !tbaa !37
  %140 = add nsw i32 %139, 1
  store i32 %140, ptr %25, align 4, !tbaa !37
  br label %41, !llvm.loop !263

141:                                              ; preds = %46
  call void @llvm.lifetime.end.p0(i64 4, ptr %24) #12
  call void @llvm.lifetime.end.p0(i64 8, ptr %23) #12
  call void @llvm.lifetime.end.p0(i64 8, ptr %22) #12
  call void @llvm.lifetime.end.p0(i64 8, ptr %21) #12
  ret void
}